; Function Attrs: mustprogress uwtable
define noundef zeroext i1 @_ZNK6icu_7524CollationElementIteratoreqERKS0_(ptr noundef nonnull align 8 dereferenceable(104) %this, ptr noundef nonnull align 8 dereferenceable(104) %that) local_unnamed_addr #1 align 2 {
entry:
  %cmp = icmp eq ptr %this, %that
  br i1 %cmp, label %return, label %if.end

if.end:                                           ; preds = %entry
  %rbc_ = getelementptr inbounds i8, ptr %this, i64 16
  %0 = load ptr, ptr %rbc_, align 8
  %rbc_2 = getelementptr inbounds i8, ptr %that, i64 16
  %1 = load ptr, ptr %rbc_2, align 8
  %cmp3 = icmp eq ptr %0, %1
  br i1 %cmp3, label %land.lhs.true, label %lor.lhs.false

lor.lhs.false:                                    ; preds = %if.end
  %call = tail call noundef zeroext i1 @_ZNK6icu_7517RuleBasedCollatoreqERKNS_8CollatorE(ptr noundef nonnull align 8 dereferenceable(272) %0, ptr noundef nonnull align 8 dereferenceable(8) %1)
  br i1 %call, label %land.lhs.true, label %return

land.lhs.true:                                    ; preds = %lor.lhs.false, %if.end
  %otherHalf_ = getelementptr inbounds i8, ptr %this, i64 24
  %2 = load i32, ptr %otherHalf_, align 8
  %otherHalf_6 = getelementptr inbounds i8, ptr %that, i64 24
  %3 = load i32, ptr %otherHalf_6, align 8
  %cmp7 = icmp eq i32 %2, %3
  br i1 %cmp7, label %land.lhs.true8, label %return

land.lhs.true8:                                   ; preds = %land.lhs.true
  %dir_.i = getelementptr inbounds i8, ptr %this, i64 28
  %4 = load i8, ptr %dir_.i, align 4
  %cmp.i = icmp eq i8 %4, 1
  %spec.select.i = select i1 %cmp.i, i8 0, i8 %4
  %dir_.i8 = getelementptr inbounds i8, ptr %that, i64 28
  %5 = load i8, ptr %dir_.i8, align 4
  %cmp.i9 = icmp eq i8 %5, 1
  %spec.select.i10 = select i1 %cmp.i9, i8 0, i8 %5
  %cmp12 = icmp eq i8 %spec.select.i, %spec.select.i10
  br i1 %cmp12, label %land.lhs.true13, label %return

land.lhs.true13:                                  ; preds = %land.lhs.true8
  %string_ = getelementptr inbounds i8, ptr %this, i64 40
  %string_14 = getelementptr inbounds i8, ptr %that, i64 40
  %fUnion.i.i = getelementptr inbounds i8, ptr %this, i64 48
  %6 = load i16, ptr %fUnion.i.i, align 8
  %conv2.i14.i = and i16 %6, 1
  %tobool.not.i = icmp eq i16 %conv2.i14.i, 0
  br i1 %tobool.not.i, label %if.else.i, label %if.then.i

if.then.i:                                        ; preds = %land.lhs.true13
  %fUnion.i5.i = getelementptr inbounds i8, ptr %that, i64 48
  %7 = load i16, ptr %fUnion.i5.i, align 8
  %conv2.i615.i = and i16 %7, 1
  %tobool3.i.not = icmp eq i16 %conv2.i615.i, 0
  br i1 %tobool3.i.not, label %return, label %land.rhs

if.else.i:                                        ; preds = %land.lhs.true13
  %cmp.i.i.i = icmp slt i16 %6, 0
  %8 = ashr i16 %6, 5
  %shr.i.i.i = sext i16 %8 to i32
  %fLength.i.i = getelementptr inbounds i8, ptr %this, i64 52
  %9 = load i32, ptr %fLength.i.i, align 4
  %cond.i.i = select i1 %cmp.i.i.i, i32 %9, i32 %shr.i.i.i
  %fUnion.i.i7.i = getelementptr inbounds i8, ptr %that, i64 48
  %10 = load i16, ptr %fUnion.i.i7.i, align 8
  %cmp.i.i8.i = icmp slt i16 %10, 0
  %11 = ashr i16 %10, 5
  %shr.i.i9.i = sext i16 %11 to i32
  %fLength.i10.i = getelementptr inbounds i8, ptr %that, i64 52
  %12 = load i32, ptr %fLength.i10.i, align 4
  %cond.i11.i = select i1 %cmp.i.i8.i, i32 %12, i32 %shr.i.i9.i
  %conv2.i1316.i = and i16 %10, 1
  %tobool7.not.i = icmp eq i16 %conv2.i1316.i, 0
  %cmp.i11 = icmp eq i32 %cond.i.i, %cond.i11.i
  %or.cond.i = and i1 %tobool7.not.i, %cmp.i11
  br i1 %or.cond.i, label %_ZNK6icu_7513UnicodeStringeqERKS0_.exit, label %return

_ZNK6icu_7513UnicodeStringeqERKS0_.exit:          ; preds = %if.else.i
  %call8.i = tail call noundef signext i8 @_ZNK6icu_7513UnicodeString8doEqualsERKS0_i(ptr noundef nonnull align 8 dereferenceable(64) %string_, ptr noundef nonnull align 8 dereferenceable(64) %string_14, i32 noundef %cond.i.i)
  %tobool9.i.not = icmp eq i8 %call8.i, 0
  br i1 %tobool9.i.not, label %return, label %land.rhs

land.rhs:                                         ; preds = %if.then.i, %_ZNK6icu_7513UnicodeStringeqERKS0_.exit
  %iter_ = getelementptr inbounds i8, ptr %this, i64 8
  %13 = load ptr, ptr %iter_, align 8
  %iter_16 = getelementptr inbounds i8, ptr %that, i64 8
  %14 = load ptr, ptr %iter_16, align 8
  %vtable = load ptr, ptr %13, align 8
  %vfn = getelementptr inbounds i8, ptr %vtable, i64 24
  %15 = load ptr, ptr %vfn, align 8
  %call17 = tail call noundef zeroext i1 %15(ptr noundef nonnull align 8 dereferenceable(389) %13, ptr noundef nonnull align 8 dereferenceable(389) %14)
  br label %return

return:                                           ; preds = %if.else.i, %if.then.i, %lor.lhs.false, %land.lhs.true, %land.lhs.true8, %_ZNK6icu_7513UnicodeStringeqERKS0_.exit, %land.rhs, %entry
  %retval.0 = phi i1 [ true, %entry ], [ false, %_ZNK6icu_7513UnicodeStringeqERKS0_.exit ], [ false, %land.lhs.true8 ], [ false, %land.lhs.true ], [ false, %lor.lhs.false ], [ %call17, %land.rhs ], [ false, %if.then.i ], [ false, %if.else.i ]
  ret i1 %retval.0
}